Certificate:
    Data:
        Version: 3 (0x2)
        Serial Number:
            90:f2:d8:66:13:d3:6d:cb:ba:b0:7c:94:07:0a:3b:0e
        Signature Algorithm: ecdsa-with-SHA512
        Issuer: CN=Easy-RSA CA
        Validity
            Not Before: Jan 28 13:21:20 2022 GMT
            Not After : Jan 12 13:21:20 2025 GMT
        Subject: CN=server
        Subject Public Key Info:
            Public Key Algorithm: id-ecPublicKey
                Public-Key: (384 bit)
                pub:
                    04:ae:f7:da:68:6f:47:5d:7b:ba:b7:0d:08:5e:bf:
                    15:3e:9c:dd:8c:e8:34:5c:c5:78:1f:1c:25:b6:f8:
                    0e:25:e4:22:d0:f5:1d:64:cc:24:25:f4:72:b7:4e:
                    ea:bd:22:dd:0e:2a:1c:3b:89:4f:96:8f:40:87:0f:
                    29:84:68:81:d8:fa:df:48:1c:a0:cd:d9:a9:fc:b8:
                    72:94:fd:ab:92:ac:34:73:e1:59:0c:18:0f:fc:b3:
                    87:98:fa:59:94:29:6f
                ASN1 OID: secp384r1
                NIST CURVE: P-384
        X509v3 extensions:
            X509v3 Basic Constraints: 
                CA:FALSE
            X509v3 Subject Key Identifier: 
                9A:8B:09:E1:BF:0D:F4:D0:1F:F4:F5:47:2E:67:1E:24:E3:B1:1E:44
            X509v3 Authority Key Identifier: 
                keyid:E1:48:BC:9F:24:EA:26:DC:19:DD:B7:AC:EF:71:DB:DD:B0:5D:FB:D8
                DirName:/CN=Easy-RSA CA
                serial:31:6A:96:2C:88:C3:B5:7E:E9:BE:C6:34:DF:8D:A3:9F:6E:86:95:8A

            X509v3 Extended Key Usage: 
                TLS Web Server Authentication
            X509v3 Key Usage: 
                Digital Signature, Key Encipherment
            X509v3 Subject Alternative Name: 
                DNS:server
    Signature Algorithm: ecdsa-with-SHA512
         30:65:02:31:00:c2:31:89:57:58:d0:69:df:c3:ef:24:ef:47:
         33:e9:ab:04:4a:99:b8:9a:80:3d:47:a7:f5:5b:ec:9c:d3:0c:
         55:e7:ed:4f:0e:d1:4e:a1:50:f3:29:05:62:86:13:62:8f:02:
         30:6b:8a:e5:f0:5d:17:ee:37:89:1a:85:a3:d4:a6:1c:13:93:
         3e:c6:31:67:3e:65:fd:c2:cb:7d:e9:66:f8:b6:94:bd:fc:b4:
         43:87:1a:bd:5c:cd:18:1e:aa:86:2e:45:4f
-----BEGIN CERTIFICATE-----
MIICGTCCAZ+gAwIBAgIRAJDy2GYT023LurB8lAcKOw4wCgYIKoZIzj0EAwQwFjEU
MBIGA1UEAwwLRWFzeS1SU0EgQ0EwHhcNMjIwMTI4MTMyMTIwWhcNMjUwMTEyMTMy
MTIwWjARMQ8wDQYDVQQDDAZzZXJ2ZXIwdjAQBgcqhkjOPQIBBgUrgQQAIgNiAASu
99pob0dde7q3DQhevxU+nN2M6DRcxXgfHCW2+A4l5CLQ9R1kzCQl9HK3Tuq9It0O
Khw7iU+Wj0CHDymEaIHY+t9IHKDN2an8uHKU/auSrDRz4VkMGA/8s4eY+lmUKW+j
gbUwgbIwCQYDVR0TBAIwADAdBgNVHQ4EFgQUmosJ4b8N9NAf9PVHLmceJOOxHkQw
UQYDVR0jBEowSIAU4Ui8nyTqJtwZ3bes73Hb3bBd+9ihGqQYMBYxFDASBgNVBAMM
C0Vhc3ktUlNBIENBghQxapYsiMO1fum+xjTfjaOfboaVijATBgNVHSUEDDAKBggr
BgEFBQcDATALBgNVHQ8EBAMCBaAwEQYDVR0RBAowCIIGc2VydmVyMAoGCCqGSM49
BAMEA2gAMGUCMQDCMYlXWNBp38PvJO9HM+mrBEqZuJqAPUen9VvsnNMMVeftTw7R
TqFQ8ykFYoYTYo8CMGuK5fBdF+43iRqFo9SmHBOTPsYxZz5l/cLLfelm+LaUvfy0
Q4cavVzNGB6qhi5FTw==
-----END CERTIFICATE-----
